	.section	__TEXT,__text,regular,pure_instructions
	.macosx_version_min 10, 12
	.globl	_segment_fault_handler
	.align	4, 0x90
_segment_fault_handler:                 ## @segment_fault_handler
Lfunc_begin0:
	.file	1 "undead.c"
	.loc	1 15 0                  ## undead.c:15:0
	.cfi_startproc
## BB#0:
	pushl	%ebp
Ltmp0:
	.cfi_def_cfa_offset 8
Ltmp1:
	.cfi_offset %ebp, -8
	movl	%esp, %ebp
Ltmp2:
	.cfi_def_cfa_register %ebp
	subl	$24, %esp
	calll	L0$pb
L0$pb:
	popl	%eax
	movl	8(%ebp), %ecx
	leal	L_.str-L0$pb(%eax), %eax
	movl	%ecx, -4(%ebp)
	.loc	1 16 2 prologue_end     ## undead.c:16:2
Ltmp3:
	movl	%eax, (%esp)
	calll	_printf
	.loc	1 22 1                  ## undead.c:22:1
	movl	%eax, -8(%ebp)          ## 4-byte Spill
	addl	$24, %esp
	popl	%ebp
	retl
Ltmp4:
Lfunc_end0:
	.cfi_endproc

	.globl	_main
	.align	4, 0x90
_main:                                  ## @main
Lfunc_begin1:
	.loc	1 25 0                  ## undead.c:25:0
	.cfi_startproc
## BB#0:
	pushl	%ebp
Ltmp5:
	.cfi_def_cfa_offset 8
Ltmp6:
	.cfi_offset %ebp, -8
	movl	%esp, %ebp
Ltmp7:
	.cfi_def_cfa_register %ebp
	pushl	%esi
	subl	$36, %esp
Ltmp8:
	.cfi_offset %esi, -12
	calll	L1$pb
L1$pb:
	popl	%eax
	movl	$11, %ecx
	leal	_segment_fault_handler-L1$pb(%eax), %edx
	movl	$0, -8(%ebp)
	.loc	1 26 6 prologue_end     ## undead.c:26:6
Ltmp9:
	movl	$0, -12(%ebp)
	.loc	1 28 2                  ## undead.c:28:2
	movl	$11, (%esp)
	movl	%edx, 4(%esp)
	movl	%eax, -16(%ebp)         ## 4-byte Spill
	movl	%ecx, -20(%ebp)         ## 4-byte Spill
	calll	_signal
	movl	-16(%ebp), %ecx         ## 4-byte Reload
	leal	L_.str.1-L1$pb(%ecx), %edx
	xorl	%esi, %esi
	.loc	1 30 7                  ## undead.c:30:7
	movl	(%esi), %esi
	.loc	1 30 5 is_stmt 0        ## undead.c:30:5
	movl	%esi, -12(%ebp)
	.loc	1 32 2 is_stmt 1        ## undead.c:32:2
	movl	%edx, (%esp)
	movl	%eax, -24(%ebp)         ## 4-byte Spill
	calll	_printf
	xorl	%ecx, %ecx
	.loc	1 34 2                  ## undead.c:34:2
	movl	%eax, -28(%ebp)         ## 4-byte Spill
	movl	%ecx, %eax
	addl	$36, %esp
	popl	%esi
	popl	%ebp
	retl
Ltmp10:
Lfunc_end1:
	.cfi_endproc

	.section	__TEXT,__cstring,cstring_literals
L_.str:                                 ## @.str
	.asciz	"I am slain!\n"

L_.str.1:                               ## @.str.1
	.asciz	"I live again!\n"
